target datalayout = "e-m:e-p270:32:32-p271:32:32-p272:64:64-i64:64-i128:128-f80:128-n8:16:32:64-S128"
target triple = "x86_64-pc-linux-gnu"

%struct.user = type { ptr, i32, ptr, ptr, ptr }

; Function Attrs: nounwind uwtable
define dso_local void @ACLCopyUser(ptr noundef %0, ptr noundef %1) #0 {
  %3 = alloca ptr, align 8
  %4 = alloca ptr, align 8
  store ptr %0, ptr %3, align 8, !tbaa !32
  store ptr %1, ptr %4, align 8, !tbaa !32
  %5 = load ptr, ptr %3, align 8, !tbaa !32
  %6 = getelementptr inbounds nuw %struct.user, ptr %5, i32 0, i32 2
  %7 = load ptr, ptr %6, align 8, !tbaa !91
  call void @listRelease(ptr noundef %7)
  %8 = load ptr, ptr %3, align 8, !tbaa !32
  %9 = getelementptr inbounds nuw %struct.user, ptr %8, i32 0, i32 3
  %10 = load ptr, ptr %9, align 8, !tbaa !81
  call void @listRelease(ptr noundef %10)
  %11 = load ptr, ptr %4, align 8, !tbaa !32
  %12 = getelementptr inbounds nuw %struct.user, ptr %11, i32 0, i32 2
  %13 = load ptr, ptr %12, align 8, !tbaa !91
  %14 = call ptr @listDup(ptr noundef %13)
  %15 = load ptr, ptr %3, align 8, !tbaa !32
  %16 = getelementptr inbounds nuw %struct.user, ptr %15, i32 0, i32 2
  store ptr %14, ptr %16, align 8, !tbaa !91
  %17 = load ptr, ptr %4, align 8, !tbaa !32
  %18 = getelementptr inbounds nuw %struct.user, ptr %17, i32 0, i32 3
  %19 = load ptr, ptr %18, align 8, !tbaa !81
  %20 = call ptr @listDup(ptr noundef %19)
  %21 = load ptr, ptr %3, align 8, !tbaa !32
  %22 = getelementptr inbounds nuw %struct.user, ptr %21, i32 0, i32 3
  store ptr %20, ptr %22, align 8, !tbaa !81
  %23 = load ptr, ptr %4, align 8, !tbaa !32
  %24 = getelementptr inbounds nuw %struct.user, ptr %23, i32 0, i32 1
  %25 = load i32, ptr %24, align 8, !tbaa !90
  %26 = load ptr, ptr %3, align 8, !tbaa !32
  %27 = getelementptr inbounds nuw %struct.user, ptr %26, i32 0, i32 1
  store i32 %25, ptr %27, align 8, !tbaa !90
  %28 = load ptr, ptr %3, align 8, !tbaa !32
  %29 = getelementptr inbounds nuw %struct.user, ptr %28, i32 0, i32 4
  %30 = load ptr, ptr %29, align 8, !tbaa !92
  %31 = icmp ne ptr %30, null
  br i1 %31, label %32, label %36

32:                                               ; preds = %2
  %33 = load ptr, ptr %3, align 8, !tbaa !32
  %34 = getelementptr inbounds nuw %struct.user, ptr %33, i32 0, i32 4
  %35 = load ptr, ptr %34, align 8, !tbaa !92
  call void @decrRefCount(ptr noundef %35)
  br label %36

36:                                               ; preds = %32, %2
  %37 = load ptr, ptr %4, align 8, !tbaa !32
  %38 = getelementptr inbounds nuw %struct.user, ptr %37, i32 0, i32 4
  %39 = load ptr, ptr %38, align 8, !tbaa !92
  %40 = load ptr, ptr %3, align 8, !tbaa !32
  %41 = getelementptr inbounds nuw %struct.user, ptr %40, i32 0, i32 4
  store ptr %39, ptr %41, align 8, !tbaa !92
  %42 = load ptr, ptr %3, align 8, !tbaa !32
  %43 = getelementptr inbounds nuw %struct.user, ptr %42, i32 0, i32 4
  %44 = load ptr, ptr %43, align 8, !tbaa !92
  %45 = icmp ne ptr %44, null
  br i1 %45, label %46, label %50

46:                                               ; preds = %36
  %47 = load ptr, ptr %3, align 8, !tbaa !32
  %48 = getelementptr inbounds nuw %struct.user, ptr %47, i32 0, i32 4
  %49 = load ptr, ptr %48, align 8, !tbaa !92
  call void @incrRefCount(ptr noundef %49)
  br label %50

50:                                               ; preds = %46, %36
  ret void
}