; Function Attrs: nounwind uwtable
define dso_local void @ACLCopyUser(ptr noundef captures(none) initializes((8, 12)) %0, ptr noundef readonly captures(none) %1) local_unnamed_addr #0 {
  %3 = getelementptr inbounds nuw i8, ptr %0, i64 16
  %4 = load ptr, ptr %3, align 8, !tbaa !90
  tail call void @listRelease(ptr noundef %4) #25
  %5 = getelementptr inbounds nuw i8, ptr %0, i64 24
  %6 = load ptr, ptr %5, align 8, !tbaa !79
  tail call void @listRelease(ptr noundef %6) #25
  %7 = getelementptr inbounds nuw i8, ptr %1, i64 16
  %8 = load ptr, ptr %7, align 8, !tbaa !90
  %9 = tail call ptr @listDup(ptr noundef %8) #25
  store ptr %9, ptr %3, align 8, !tbaa !90
  %10 = getelementptr inbounds nuw i8, ptr %1, i64 24
  %11 = load ptr, ptr %10, align 8, !tbaa !79
  %12 = tail call ptr @listDup(ptr noundef %11) #25
  store ptr %12, ptr %5, align 8, !tbaa !79
  %13 = getelementptr inbounds nuw i8, ptr %1, i64 8
  %14 = load i32, ptr %13, align 8, !tbaa !89
  %15 = getelementptr inbounds nuw i8, ptr %0, i64 8
  store i32 %14, ptr %15, align 8, !tbaa !89
  %16 = getelementptr inbounds nuw i8, ptr %0, i64 32
  %17 = load ptr, ptr %16, align 8, !tbaa !91
  %.not = icmp eq ptr %17, null
  br i1 %.not, label %19, label %18

18:                                               ; preds = %2
  tail call void @decrRefCount(ptr noundef nonnull %17) #25
  br label %19

19:                                               ; preds = %18, %2
  %20 = getelementptr inbounds nuw i8, ptr %1, i64 32
  %21 = load ptr, ptr %20, align 8, !tbaa !91
  store ptr %21, ptr %16, align 8, !tbaa !91
  %.not15 = icmp eq ptr %21, null
  br i1 %.not15, label %23, label %22

22:                                               ; preds = %19
  tail call void @incrRefCount(ptr noundef nonnull %21) #25
  br label %23

23:                                               ; preds = %22, %19
  ret void
}